; Function Attrs: nofree norecurse nosync nounwind memory(argmem: readwrite) uwtable
define internal void @h264_v_loop_filter_luma_intra_8_c(ptr noundef captures(none) %0, i64 noundef %1, i32 noundef %2, i32 noundef %3) #1 {
  %5 = mul nsw i64 %1, -3
  %6 = mul nsw i64 %1, -2
  %7 = sub nsw i64 0, %1
  %8 = shl nsw i64 %1, 1
  %9 = lshr i32 %2, 2
  %10 = add nuw nsw i32 %9, 2
  %11 = mul nsw i64 %1, -4
  %12 = mul nsw i64 %1, 3
  br label %13

13:                                               ; preds = %4, %129
  %.0.i4 = phi ptr [ %0, %4 ], [ %130, %129 ]
  %.0127.i3 = phi i32 [ 0, %4 ], [ %131, %129 ]
  %14 = getelementptr inbounds i8, ptr %.0.i4, i64 %5
  %15 = load i8, ptr %14, align 1, !tbaa !42
  %16 = zext i8 %15 to i32
  %17 = getelementptr inbounds i8, ptr %.0.i4, i64 %6
  %18 = load i8, ptr %17, align 1, !tbaa !42
  %19 = zext i8 %18 to i32
  %20 = getelementptr inbounds i8, ptr %.0.i4, i64 %7
  %21 = load i8, ptr %20, align 1, !tbaa !42
  %22 = zext i8 %21 to i32
  %23 = load i8, ptr %.0.i4, align 1, !tbaa !42
  %24 = zext i8 %23 to i32
  %25 = getelementptr inbounds i8, ptr %.0.i4, i64 %1
  %26 = load i8, ptr %25, align 1, !tbaa !42
  %27 = zext i8 %26 to i32
  %28 = getelementptr inbounds i8, ptr %.0.i4, i64 %8
  %29 = load i8, ptr %28, align 1, !tbaa !42
  %30 = zext i8 %29 to i32
  %31 = sub nsw i32 %22, %24
  %32 = tail call i32 @llvm.abs.i32(i32 %31, i1 true)
  %33 = icmp slt i32 %32, %2
  br i1 %33, label %34, label %129

34:                                               ; preds = %13
  %35 = sub nsw i32 %19, %22
  %36 = tail call i32 @llvm.abs.i32(i32 %35, i1 true)
  %37 = icmp slt i32 %36, %3
  br i1 %37, label %38, label %129

38:                                               ; preds = %34
  %39 = sub nsw i32 %27, %24
  %40 = tail call i32 @llvm.abs.i32(i32 %39, i1 true)
  %41 = icmp samesign ult i32 %40, %3
  br i1 %41, label %42, label %129

42:                                               ; preds = %38
  %43 = icmp samesign ult i32 %32, %10
  br i1 %43, label %44, label %116

44:                                               ; preds = %42
  %45 = sub nsw i32 %16, %22
  %46 = tail call i32 @llvm.abs.i32(i32 %45, i1 true)
  %47 = icmp samesign ult i32 %46, %3
  br i1 %47, label %48, label %74

48:                                               ; preds = %44
  %49 = getelementptr inbounds i8, ptr %.0.i4, i64 %11
  %50 = load i8, ptr %49, align 1, !tbaa !42
  %51 = zext i8 %50 to i32
  %52 = add nuw nsw i32 %24, %19
  %53 = add nuw nsw i32 %52, %22
  %54 = shl nuw nsw i32 %53, 1
  %55 = add nuw nsw i32 %27, 4
  %56 = add nuw nsw i32 %55, %16
  %57 = add nuw nsw i32 %56, %54
  %58 = lshr i32 %57, 3
  %59 = trunc nuw i32 %58 to i8
  store i8 %59, ptr %20, align 1, !tbaa !42
  %60 = add nuw nsw i32 %52, 2
  %61 = add nuw nsw i32 %60, %16
  %62 = add nuw nsw i32 %61, %22
  %63 = lshr i32 %62, 2
  %64 = trunc nuw i32 %63 to i8
  store i8 %64, ptr %17, align 1, !tbaa !42
  %65 = shl nuw nsw i32 %51, 1
  %66 = mul nuw nsw i32 %16, 3
  %67 = add nuw nsw i32 %66, 4
  %68 = add nuw nsw i32 %67, %19
  %69 = add nuw nsw i32 %68, %22
  %70 = add nuw nsw i32 %69, %24
  %71 = add nuw nsw i32 %70, %65
  %72 = lshr i32 %71, 3
  %73 = trunc nuw i32 %72 to i8
  store i8 %73, ptr %14, align 1, !tbaa !42
  br label %81

74:                                               ; preds = %44
  %75 = shl nuw nsw i32 %19, 1
  %76 = add nuw nsw i32 %22, 2
  %77 = add nuw nsw i32 %76, %75
  %78 = add nuw nsw i32 %77, %27
  %79 = lshr i32 %78, 2
  %80 = trunc nuw i32 %79 to i8
  store i8 %80, ptr %20, align 1, !tbaa !42
  br label %81

81:                                               ; preds = %74, %48
  %82 = sub nsw i32 %30, %24
  %83 = tail call i32 @llvm.abs.i32(i32 %82, i1 true)
  %84 = icmp samesign ult i32 %83, %3
  br i1 %84, label %85, label %109

85:                                               ; preds = %81
  %86 = getelementptr inbounds i8, ptr %.0.i4, i64 %12
  %87 = load i8, ptr %86, align 1, !tbaa !42
  %88 = zext i8 %87 to i32
  %89 = add nuw nsw i32 %24, %22
  %90 = add nuw nsw i32 %89, %27
  %91 = shl nuw nsw i32 %90, 1
  %92 = add nuw nsw i32 %19, 4
  %93 = add nuw nsw i32 %92, %30
  %94 = add nuw nsw i32 %93, %91
  %95 = lshr i32 %94, 3
  %96 = trunc nuw i32 %95 to i8
  store i8 %96, ptr %.0.i4, align 1, !tbaa !42
  %97 = add nuw nsw i32 %30, 2
  %98 = add nuw nsw i32 %97, %90
  %99 = lshr i32 %98, 2
  %100 = trunc nuw i32 %99 to i8
  store i8 %100, ptr %25, align 1, !tbaa !42
  %101 = shl nuw nsw i32 %88, 1
  %102 = mul nuw nsw i32 %30, 3
  %103 = add nuw nsw i32 %89, 4
  %104 = add nuw nsw i32 %103, %27
  %105 = add nuw nsw i32 %104, %102
  %106 = add nuw nsw i32 %105, %101
  %107 = lshr i32 %106, 3
  %108 = trunc nuw i32 %107 to i8
  store i8 %108, ptr %28, align 1, !tbaa !42
  br label %129

109:                                              ; preds = %81
  %110 = shl nuw nsw i32 %27, 1
  %111 = add nuw nsw i32 %24, %19
  %112 = add nuw nsw i32 %111, 2
  %113 = add nuw nsw i32 %112, %110
  %114 = lshr i32 %113, 2
  %115 = trunc nuw i32 %114 to i8
  store i8 %115, ptr %.0.i4, align 1, !tbaa !42
  br label %129

116:                                              ; preds = %42
  %117 = shl nuw nsw i32 %19, 1
  %118 = add nuw nsw i32 %22, 2
  %119 = add nuw nsw i32 %118, %117
  %120 = add nuw nsw i32 %119, %27
  %121 = lshr i32 %120, 2
  %122 = trunc nuw i32 %121 to i8
  store i8 %122, ptr %20, align 1, !tbaa !42
  %123 = shl nuw nsw i32 %27, 1
  %124 = add nuw nsw i32 %24, %19
  %125 = add nuw nsw i32 %124, 2
  %126 = add nuw nsw i32 %125, %123
  %127 = lshr i32 %126, 2
  %128 = trunc nuw i32 %127 to i8
  store i8 %128, ptr %.0.i4, align 1, !tbaa !42
  br label %129

129:                                              ; preds = %116, %109, %85, %38, %34, %13
  %130 = getelementptr inbounds nuw i8, ptr %.0.i4, i64 1
  %131 = add nuw nsw i32 %.0127.i3, 1
  %exitcond.not = icmp eq i32 %131, 16
  br i1 %exitcond.not, label %h264_loop_filter_luma_intra_8_c.exit, label %13, !llvm.loop !111

h264_loop_filter_luma_intra_8_c.exit:             ; preds = %129
  ret void
}